target datalayout = "e-m:e-p270:32:32-p271:32:32-p272:64:64-i64:64-i128:128-f80:128-n8:16:32:64-S128"
target triple = "x86_64-pc-linux-gnu"

%struct.SMgrRelationData = type { %struct.RelFileLocatorBackend, i32, [4 x i32], i32, [4 x i32], [4 x ptr], i32, %struct.dlist_node }
%struct.RelFileLocatorBackend = type { %struct.RelFileLocator, i32 }
%struct.RelFileLocator = type { i32, i32, i32 }
%struct.dlist_node = type { ptr, ptr }
%struct._MdfdVec = type { i32, i32 }

@MdCxt = internal global ptr null, align 8
@.str.2 = private unnamed_addr constant [5 x i8] c"md.c\00", align 1
@io_direct_flags = external global i32, align 4
@.str.20 = private unnamed_addr constant [29 x i8] c"could not open file \22%s\22: %m\00", align 1
@__func__.mdopenfork = private unnamed_addr constant [11 x i8] c"mdopenfork\00", align 1

; Function Attrs: nounwind uwtable
define internal void @_fdvec_resize(ptr noundef %0, i32 noundef %1, i32 noundef %2) #0 {
  %4 = alloca ptr, align 8
  %5 = alloca i32, align 4
  %6 = alloca i32, align 4
  store ptr %0, ptr %4, align 8
  store i32 %1, ptr %5, align 4
  store i32 %2, ptr %6, align 4
  %7 = load i32, ptr %6, align 4
  %8 = icmp eq i32 %7, 0
  br i1 %8, label %9, label %30

9:                                                ; preds = %3
  %10 = load ptr, ptr %4, align 8
  %11 = getelementptr inbounds nuw %struct.SMgrRelationData, ptr %10, i32 0, i32 4
  %12 = load i32, ptr %5, align 4
  %13 = sext i32 %12 to i64
  %14 = getelementptr inbounds [4 x i32], ptr %11, i64 0, i64 %13
  %15 = load i32, ptr %14, align 4
  %16 = icmp sgt i32 %15, 0
  br i1 %16, label %17, label %29

17:                                               ; preds = %9
  %18 = load ptr, ptr %4, align 8
  %19 = getelementptr inbounds nuw %struct.SMgrRelationData, ptr %18, i32 0, i32 5
  %20 = load i32, ptr %5, align 4
  %21 = sext i32 %20 to i64
  %22 = getelementptr inbounds [4 x ptr], ptr %19, i64 0, i64 %21
  %23 = load ptr, ptr %22, align 8
  call void @pfree(ptr noundef %23)
  %24 = load ptr, ptr %4, align 8
  %25 = getelementptr inbounds nuw %struct.SMgrRelationData, ptr %24, i32 0, i32 5
  %26 = load i32, ptr %5, align 4
  %27 = sext i32 %26 to i64
  %28 = getelementptr inbounds [4 x ptr], ptr %25, i64 0, i64 %27
  store ptr null, ptr %28, align 8
  br label %29

29:                                               ; preds = %17, %9
  br label %77

30:                                               ; preds = %3
  %31 = load ptr, ptr %4, align 8
  %32 = getelementptr inbounds nuw %struct.SMgrRelationData, ptr %31, i32 0, i32 4
  %33 = load i32, ptr %5, align 4
  %34 = sext i32 %33 to i64
  %35 = getelementptr inbounds [4 x i32], ptr %32, i64 0, i64 %34
  %36 = load i32, ptr %35, align 4
  %37 = icmp eq i32 %36, 0
  br i1 %37, label %38, label %49

38:                                               ; preds = %30
  %39 = load ptr, ptr @MdCxt, align 8
  %40 = load i32, ptr %6, align 4
  %41 = sext i32 %40 to i64
  %42 = mul i64 8, %41
  %43 = call ptr @MemoryContextAlloc(ptr noundef %39, i64 noundef %42)
  %44 = load ptr, ptr %4, align 8
  %45 = getelementptr inbounds nuw %struct.SMgrRelationData, ptr %44, i32 0, i32 5
  %46 = load i32, ptr %5, align 4
  %47 = sext i32 %46 to i64
  %48 = getelementptr inbounds [4 x ptr], ptr %45, i64 0, i64 %47
  store ptr %43, ptr %48, align 8
  br label %76

49:                                               ; preds = %30
  %50 = load i32, ptr %6, align 4
  %51 = load ptr, ptr %4, align 8
  %52 = getelementptr inbounds nuw %struct.SMgrRelationData, ptr %51, i32 0, i32 4
  %53 = load i32, ptr %5, align 4
  %54 = sext i32 %53 to i64
  %55 = getelementptr inbounds [4 x i32], ptr %52, i64 0, i64 %54
  %56 = load i32, ptr %55, align 4
  %57 = icmp sgt i32 %50, %56
  br i1 %57, label %58, label %74

58:                                               ; preds = %49
  %59 = load ptr, ptr %4, align 8
  %60 = getelementptr inbounds nuw %struct.SMgrRelationData, ptr %59, i32 0, i32 5
  %61 = load i32, ptr %5, align 4
  %62 = sext i32 %61 to i64
  %63 = getelementptr inbounds [4 x ptr], ptr %60, i64 0, i64 %62
  %64 = load ptr, ptr %63, align 8
  %65 = load i32, ptr %6, align 4
  %66 = sext i32 %65 to i64
  %67 = mul i64 8, %66
  %68 = call ptr @repalloc(ptr noundef %64, i64 noundef %67)
  %69 = load ptr, ptr %4, align 8
  %70 = getelementptr inbounds nuw %struct.SMgrRelationData, ptr %69, i32 0, i32 5
  %71 = load i32, ptr %5, align 4
  %72 = sext i32 %71 to i64
  %73 = getelementptr inbounds [4 x ptr], ptr %70, i64 0, i64 %72
  store ptr %68, ptr %73, align 8
  br label %75

74:                                               ; preds = %49
  br label %75

75:                                               ; preds = %74, %58
  br label %76

76:                                               ; preds = %75, %38
  br label %77

77:                                               ; preds = %76, %29
  %78 = load i32, ptr %6, align 4
  %79 = load ptr, ptr %4, align 8
  %80 = getelementptr inbounds nuw %struct.SMgrRelationData, ptr %79, i32 0, i32 4
  %81 = load i32, ptr %5, align 4
  %82 = sext i32 %81 to i64
  %83 = getelementptr inbounds [4 x i32], ptr %80, i64 0, i64 %82
  store i32 %78, ptr %83, align 4
  ret void
}

; Function Attrs: inlinehint nounwind uwtable
define internal i32 @_mdfd_open_flags() #3 {
  %1 = alloca i32, align 4
  call void @llvm.lifetime.start.p0(i64 4, ptr %1) #10
  store i32 2, ptr %1, align 4
  %2 = load i32, ptr @io_direct_flags, align 4
  %3 = and i32 %2, 1
  %4 = icmp ne i32 %3, 0
  br i1 %4, label %5, label %8

5:                                                ; preds = %0
  %6 = load i32, ptr %1, align 4
  %7 = or i32 %6, 16384
  store i32 %7, ptr %1, align 4
  br label %8

8:                                                ; preds = %5, %0
  %9 = load i32, ptr %1, align 4
  call void @llvm.lifetime.end.p0(i64 4, ptr %1) #10
  ret i32 %9
}

; Function Attrs: nounwind uwtable
define internal ptr @mdopenfork(ptr noundef %0, i32 noundef %1, i32 noundef %2) #0 {
  %4 = alloca ptr, align 8
  %5 = alloca ptr, align 8
  %6 = alloca i32, align 4
  %7 = alloca i32, align 4
  %8 = alloca ptr, align 8
  %9 = alloca ptr, align 8
  %10 = alloca i32, align 4
  %11 = alloca i32, align 4
  store ptr %0, ptr %5, align 8
  store i32 %1, ptr %6, align 4
  store i32 %2, ptr %7, align 4
  call void @llvm.lifetime.start.p0(i64 8, ptr %8) #10
  call void @llvm.lifetime.start.p0(i64 8, ptr %9) #10
  call void @llvm.lifetime.start.p0(i64 4, ptr %10) #10
  %12 = load ptr, ptr %5, align 8
  %13 = getelementptr inbounds nuw %struct.SMgrRelationData, ptr %12, i32 0, i32 4
  %14 = load i32, ptr %6, align 4
  %15 = sext i32 %14 to i64
  %16 = getelementptr inbounds [4 x i32], ptr %13, i64 0, i64 %15
  %17 = load i32, ptr %16, align 4
  %18 = icmp sgt i32 %17, 0
  br i1 %18, label %19, label %27

19:                                               ; preds = %3
  %20 = load ptr, ptr %5, align 8
  %21 = getelementptr inbounds nuw %struct.SMgrRelationData, ptr %20, i32 0, i32 5
  %22 = load i32, ptr %6, align 4
  %23 = sext i32 %22 to i64
  %24 = getelementptr inbounds [4 x ptr], ptr %21, i64 0, i64 %23
  %25 = load ptr, ptr %24, align 8
  %26 = getelementptr inbounds %struct._MdfdVec, ptr %25, i64 0
  store ptr %26, ptr %4, align 8
  store i32 1, ptr %11, align 4
  br label %94

27:                                               ; preds = %3
  %28 = load ptr, ptr %5, align 8
  %29 = getelementptr inbounds nuw %struct.SMgrRelationData, ptr %28, i32 0, i32 0
  %30 = getelementptr inbounds nuw %struct.RelFileLocatorBackend, ptr %29, i32 0, i32 0
  %31 = getelementptr inbounds nuw %struct.RelFileLocator, ptr %30, i32 0, i32 1
  %32 = load i32, ptr %31, align 4
  %33 = load ptr, ptr %5, align 8
  %34 = getelementptr inbounds nuw %struct.SMgrRelationData, ptr %33, i32 0, i32 0
  %35 = getelementptr inbounds nuw %struct.RelFileLocatorBackend, ptr %34, i32 0, i32 0
  %36 = getelementptr inbounds nuw %struct.RelFileLocator, ptr %35, i32 0, i32 0
  %37 = load i32, ptr %36, align 8
  %38 = load ptr, ptr %5, align 8
  %39 = getelementptr inbounds nuw %struct.SMgrRelationData, ptr %38, i32 0, i32 0
  %40 = getelementptr inbounds nuw %struct.RelFileLocatorBackend, ptr %39, i32 0, i32 0
  %41 = getelementptr inbounds nuw %struct.RelFileLocator, ptr %40, i32 0, i32 2
  %42 = load i32, ptr %41, align 8
  %43 = load ptr, ptr %5, align 8
  %44 = getelementptr inbounds nuw %struct.SMgrRelationData, ptr %43, i32 0, i32 0
  %45 = getelementptr inbounds nuw %struct.RelFileLocatorBackend, ptr %44, i32 0, i32 1
  %46 = load i32, ptr %45, align 4
  %47 = load i32, ptr %6, align 4
  %48 = call ptr @GetRelationPath(i32 noundef %32, i32 noundef %37, i32 noundef %42, i32 noundef %46, i32 noundef %47)
  store ptr %48, ptr %9, align 8
  %49 = load ptr, ptr %9, align 8
  %50 = call i32 @_mdfd_open_flags()
  %51 = call i32 @PathNameOpenFile(ptr noundef %49, i32 noundef %50)
  store i32 %51, ptr %10, align 4
  %52 = load i32, ptr %10, align 4
  %53 = icmp slt i32 %52, 0
  br i1 %53, label %54, label %77

54:                                               ; preds = %27
  %55 = load i32, ptr %7, align 4
  %56 = and i32 %55, 2
  %57 = icmp ne i32 %56, 0
  br i1 %57, label %58, label %64

58:                                               ; preds = %54
  %59 = call ptr @__errno_location() #11
  %60 = load i32, ptr %59, align 4
  %61 = icmp eq i32 %60, 2
  br i1 %61, label %62, label %64

62:                                               ; preds = %58
  %63 = load ptr, ptr %9, align 8
  call void @pfree(ptr noundef %63)
  store ptr null, ptr %4, align 8
  store i32 1, ptr %11, align 4
  br label %94

64:                                               ; preds = %58, %54
  br label %65

65:                                               ; preds = %64
  br i1 true, label %66, label %68

66:                                               ; preds = %65
  %67 = call zeroext i1 @errstart_cold(i32 noundef 21, ptr noundef null) #12
  br i1 %67, label %70, label %74

68:                                               ; preds = %65
  %69 = call zeroext i1 @errstart(i32 noundef 21, ptr noundef null)
  br i1 %69, label %70, label %74

70:                                               ; preds = %68, %66
  %71 = call i32 @errcode_for_file_access()
  %72 = load ptr, ptr %9, align 8
  %73 = call i32 (ptr, ...) @errmsg(ptr noundef @.str.20, ptr noundef %72)
  call void @errfinish(ptr noundef @.str.2, i32 noundef 653, ptr noundef @__func__.mdopenfork)
  br label %74

74:                                               ; preds = %70, %68, %66
  unreachable

75:                                               ; No predecessors!
  br label %76

76:                                               ; preds = %75
  br label %77

77:                                               ; preds = %76, %27
  %78 = load ptr, ptr %9, align 8
  call void @pfree(ptr noundef %78)
  %79 = load ptr, ptr %5, align 8
  %80 = load i32, ptr %6, align 4
  call void @_fdvec_resize(ptr noundef %79, i32 noundef %80, i32 noundef 1)
  %81 = load ptr, ptr %5, align 8
  %82 = getelementptr inbounds nuw %struct.SMgrRelationData, ptr %81, i32 0, i32 5
  %83 = load i32, ptr %6, align 4
  %84 = sext i32 %83 to i64
  %85 = getelementptr inbounds [4 x ptr], ptr %82, i64 0, i64 %84
  %86 = load ptr, ptr %85, align 8
  %87 = getelementptr inbounds %struct._MdfdVec, ptr %86, i64 0
  store ptr %87, ptr %8, align 8
  %88 = load i32, ptr %10, align 4
  %89 = load ptr, ptr %8, align 8
  %90 = getelementptr inbounds nuw %struct._MdfdVec, ptr %89, i32 0, i32 0
  store i32 %88, ptr %90, align 4
  %91 = load ptr, ptr %8, align 8
  %92 = getelementptr inbounds nuw %struct._MdfdVec, ptr %91, i32 0, i32 1
  store i32 0, ptr %92, align 4
  %93 = load ptr, ptr %8, align 8
  store ptr %93, ptr %4, align 8
  store i32 1, ptr %11, align 4
  br label %94

94:                                               ; preds = %77, %62, %19
  call void @llvm.lifetime.end.p0(i64 4, ptr %10) #10
  call void @llvm.lifetime.end.p0(i64 8, ptr %9) #10
  call void @llvm.lifetime.end.p0(i64 8, ptr %8) #10
  %95 = load ptr, ptr %4, align 8
  ret ptr %95
}