; Function Attrs: nounwind uwtable
define internal fastcc ptr @mdopenfork(ptr noundef captures(none) %0, i32 noundef %1, i32 noundef range(i32 1, 33) %2) unnamed_addr #0 {
  %4 = getelementptr inbounds nuw i8, ptr %0, i64 40
  %5 = sext i32 %1 to i64
  %6 = getelementptr inbounds [4 x i32], ptr %4, i64 0, i64 %5
  %7 = load i32, ptr %6, align 4
  %8 = icmp sgt i32 %7, 0
  br i1 %8, label %9, label %13

9:                                                ; preds = %3
  %10 = getelementptr inbounds nuw i8, ptr %0, i64 56
  %11 = getelementptr inbounds [4 x ptr], ptr %10, i64 0, i64 %5
  %12 = load ptr, ptr %11, align 8
  br label %56

13:                                               ; preds = %3
  %14 = getelementptr inbounds nuw i8, ptr %0, i64 4
  %15 = load i32, ptr %14, align 4
  %16 = load i32, ptr %0, align 8
  %17 = getelementptr inbounds nuw i8, ptr %0, i64 8
  %18 = load i32, ptr %17, align 8
  %19 = getelementptr inbounds nuw i8, ptr %0, i64 12
  %20 = load i32, ptr %19, align 4
  %21 = tail call ptr @GetRelationPath(i32 noundef %15, i32 noundef %16, i32 noundef %18, i32 noundef %20, i32 noundef %1) #15
  %22 = load i32, ptr @io_direct_flags, align 4
  %23 = and i32 %22, 1
  %.not.i = icmp eq i32 %23, 0
  %spec.select.i = select i1 %.not.i, i32 2, i32 16386
  %24 = tail call i32 @PathNameOpenFile(ptr noundef %21, i32 noundef %spec.select.i) #15
  %25 = icmp slt i32 %24, 0
  br i1 %25, label %26, label %37

26:                                               ; preds = %13
  %27 = and i32 %2, 2
  %.not = icmp eq i32 %27, 0
  br i1 %.not, label %33, label %28

28:                                               ; preds = %26
  %29 = tail call ptr @__errno_location() #16
  %30 = load i32, ptr %29, align 4
  %31 = icmp eq i32 %30, 2
  br i1 %31, label %32, label %33

32:                                               ; preds = %28
  tail call void @pfree(ptr noundef %21) #15
  br label %56

33:                                               ; preds = %28, %26
  %34 = tail call zeroext i1 @errstart_cold(i32 noundef 21, ptr noundef null) #17
  tail call void @llvm.assume(i1 %34)
  %35 = tail call i32 @errcode_for_file_access() #15
  %36 = tail call i32 (ptr, ...) @errmsg(ptr noundef nonnull @.str.20, ptr noundef %21) #15
  tail call void @errfinish(ptr noundef nonnull @.str.2, i32 noundef 653, ptr noundef nonnull @__func__.mdopenfork) #15
  unreachable

37:                                               ; preds = %13
  tail call void @pfree(ptr noundef %21) #15
  %38 = load i32, ptr %6, align 4
  %39 = icmp eq i32 %38, 0
  br i1 %39, label %40, label %45

40:                                               ; preds = %37
  %41 = load ptr, ptr @MdCxt, align 8
  %42 = tail call ptr @MemoryContextAlloc(ptr noundef %41, i64 noundef 8) #15
  %43 = getelementptr inbounds nuw i8, ptr %0, i64 56
  %44 = getelementptr inbounds [4 x ptr], ptr %43, i64 0, i64 %5
  store ptr %42, ptr %44, align 8
  br label %_fdvec_resize.exit

45:                                               ; preds = %37
  %46 = icmp slt i32 %38, 1
  br i1 %46, label %47, label %_fdvec_resize.exit

47:                                               ; preds = %45
  %48 = getelementptr inbounds nuw i8, ptr %0, i64 56
  %49 = getelementptr inbounds [4 x ptr], ptr %48, i64 0, i64 %5
  %50 = load ptr, ptr %49, align 8
  %51 = tail call ptr @repalloc(ptr noundef %50, i64 noundef 8) #15
  store ptr %51, ptr %49, align 8
  br label %_fdvec_resize.exit

_fdvec_resize.exit:                               ; preds = %40, %45, %47
  store i32 1, ptr %6, align 4
  %52 = getelementptr inbounds nuw i8, ptr %0, i64 56
  %53 = getelementptr inbounds [4 x ptr], ptr %52, i64 0, i64 %5
  %54 = load ptr, ptr %53, align 8
  store i32 %24, ptr %54, align 4
  %55 = getelementptr inbounds nuw i8, ptr %54, i64 4
  store i32 0, ptr %55, align 4
  br label %56

56:                                               ; preds = %_fdvec_resize.exit, %32, %9
  %.0 = phi ptr [ %12, %9 ], [ null, %32 ], [ %54, %_fdvec_resize.exit ]
  ret ptr %.0
}